; Function Attrs: nounwind uwtable
define internal ptr @object_setattr(ptr readnone captures(none) %0, ptr noundef %1) #0 {
  %3 = alloca ptr, align 8
  %4 = alloca ptr, align 8
  %5 = alloca ptr, align 8
  call void @llvm.lifetime.start.p0(i64 8, ptr nonnull %3) #4
  call void @llvm.lifetime.start.p0(i64 8, ptr nonnull %4) #4
  call void @llvm.lifetime.start.p0(i64 8, ptr nonnull %5) #4
  %6 = call i32 (ptr, ptr, ...) @PyArg_ParseTuple(ptr noundef %1, ptr noundef nonnull @.str.50, ptr noundef nonnull %3, ptr noundef nonnull %4, ptr noundef nonnull %5) #4
  %.not = icmp eq i32 %6, 0
  br i1 %.not, label %33, label %7

7:                                                ; preds = %2
  %8 = load ptr, ptr %3, align 8, !tbaa !3
  %9 = icmp eq ptr %8, @_Py_NoneStruct
  br i1 %9, label %10, label %11

10:                                               ; preds = %7
  store ptr null, ptr %3, align 8, !tbaa !3
  br label %11

11:                                               ; preds = %7, %10
  %12 = phi ptr [ %8, %7 ], [ null, %10 ]
  %13 = load ptr, ptr %4, align 8, !tbaa !3
  %14 = icmp eq ptr %13, @_Py_NoneStruct
  br i1 %14, label %15, label %16

15:                                               ; preds = %11
  store ptr null, ptr %4, align 8, !tbaa !3
  br label %16

16:                                               ; preds = %11, %15
  %17 = phi ptr [ %13, %11 ], [ null, %15 ]
  %18 = load ptr, ptr %5, align 8, !tbaa !3
  %19 = icmp eq ptr %18, @_Py_NoneStruct
  br i1 %19, label %20, label %21

20:                                               ; preds = %16
  store ptr null, ptr %5, align 8, !tbaa !3
  br label %21

21:                                               ; preds = %16, %20
  %22 = phi ptr [ %18, %16 ], [ null, %20 ]
  %23 = call i32 @PyObject_SetAttr(ptr noundef %12, ptr noundef %17, ptr noundef %22) #4
  %24 = icmp eq i32 %23, -1
  %25 = call ptr @PyErr_Occurred() #4
  %.not5 = icmp eq ptr %25, null
  br i1 %24, label %26, label %28

26:                                               ; preds = %21
  br i1 %.not5, label %27, label %33

27:                                               ; preds = %26
  call void @__assert_fail(ptr noundef nonnull @.str.51, ptr noundef nonnull @.str.52, i32 noundef 93, ptr noundef nonnull @__PRETTY_FUNCTION__.object_setattr) #5
  unreachable

28:                                               ; preds = %21
  br i1 %.not5, label %30, label %29

29:                                               ; preds = %28
  call void @__assert_fail(ptr noundef nonnull @.str.53, ptr noundef nonnull @.str.52, i32 noundef 93, ptr noundef nonnull @__PRETTY_FUNCTION__.object_setattr) #5
  unreachable

30:                                               ; preds = %28
  %31 = sext i32 %23 to i64
  %32 = call ptr @PyLong_FromLong(i64 noundef %31) #4
  br label %33

33:                                               ; preds = %30, %26, %2
  %.0 = phi ptr [ null, %2 ], [ %32, %30 ], [ null, %26 ]
  call void @llvm.lifetime.end.p0(i64 8, ptr nonnull %5) #4
  call void @llvm.lifetime.end.p0(i64 8, ptr nonnull %4) #4
  call void @llvm.lifetime.end.p0(i64 8, ptr nonnull %3) #4
  ret ptr %.0
}